target datalayout = "e-m:e-p270:32:32-p271:32:32-p272:64:64-i64:64-i128:128-f80:128-n8:16:32:64-S128"
target triple = "x86_64-pc-linux-gnu"

@zend_tolower_map = external constant [256 x i8], align 16
@zend_toupper_map = external constant [256 x i8], align 16

; Function Attrs: alwaysinline nounwind uwtable
define internal zeroext i1 @zend_strnieq(ptr noundef %0, ptr noundef %1, i64 noundef %2) #7 {
  %4 = alloca i1, align 1
  %5 = alloca ptr, align 8
  %6 = alloca ptr, align 8
  %7 = alloca i64, align 8
  %8 = alloca ptr, align 8
  %9 = alloca i32, align 4
  store ptr %0, ptr %5, align 8, !tbaa !10
  store ptr %1, ptr %6, align 8, !tbaa !10
  store i64 %2, ptr %7, align 8, !tbaa !31
  call void @llvm.lifetime.start.p0(i64 8, ptr %8) #22
  %10 = load ptr, ptr %5, align 8, !tbaa !10
  %11 = load i64, ptr %7, align 8, !tbaa !31
  %12 = getelementptr inbounds nuw i8, ptr %10, i64 %11
  store ptr %12, ptr %8, align 8, !tbaa !10
  br label %13

13:                                               ; preds = %34, %3
  %14 = load ptr, ptr %5, align 8, !tbaa !10
  %15 = load ptr, ptr %8, align 8, !tbaa !10
  %16 = icmp ult ptr %14, %15
  br i1 %16, label %17, label %35

17:                                               ; preds = %13
  %18 = load ptr, ptr %5, align 8, !tbaa !10
  %19 = getelementptr inbounds nuw i8, ptr %18, i32 1
  store ptr %19, ptr %5, align 8, !tbaa !10
  %20 = load i8, ptr %18, align 1, !tbaa !12
  %21 = zext i8 %20 to i64
  %22 = getelementptr inbounds nuw [256 x i8], ptr @zend_tolower_map, i64 0, i64 %21
  %23 = load i8, ptr %22, align 1, !tbaa !12
  %24 = zext i8 %23 to i32
  %25 = load ptr, ptr %6, align 8, !tbaa !10
  %26 = getelementptr inbounds nuw i8, ptr %25, i32 1
  store ptr %26, ptr %6, align 8, !tbaa !10
  %27 = load i8, ptr %25, align 1, !tbaa !12
  %28 = zext i8 %27 to i64
  %29 = getelementptr inbounds nuw [256 x i8], ptr @zend_tolower_map, i64 0, i64 %28
  %30 = load i8, ptr %29, align 1, !tbaa !12
  %31 = zext i8 %30 to i32
  %32 = icmp ne i32 %24, %31
  br i1 %32, label %33, label %34

33:                                               ; preds = %17
  store i1 false, ptr %4, align 1
  store i32 1, ptr %9, align 4
  br label %36

34:                                               ; preds = %17
  br label %13

35:                                               ; preds = %13
  store i1 true, ptr %4, align 1
  store i32 1, ptr %9, align 4
  br label %36

36:                                               ; preds = %35, %33
  call void @llvm.lifetime.end.p0(i64 8, ptr %8) #22
  %37 = load i1, ptr %4, align 1
  ret i1 %37
}

; Function Attrs: alwaysinline nounwind uwtable
define internal ptr @zend_memnistr(ptr noundef %0, ptr noundef %1, i64 noundef %2, ptr noundef %3) #7 {
  %5 = alloca ptr, align 8
  %6 = alloca ptr, align 8
  %7 = alloca ptr, align 8
  %8 = alloca i64, align 8
  %9 = alloca ptr, align 8
  %10 = alloca i8, align 1
  %11 = alloca i8, align 1
  %12 = alloca ptr, align 8
  %13 = alloca ptr, align 8
  %14 = alloca i64, align 8
  %15 = alloca ptr, align 8
  %16 = alloca i32, align 4
  %17 = alloca i8, align 1
  %18 = alloca i8, align 1
  store ptr %0, ptr %6, align 8, !tbaa !10
  store ptr %1, ptr %7, align 8, !tbaa !10
  store i64 %2, ptr %8, align 8, !tbaa !31
  store ptr %3, ptr %9, align 8, !tbaa !10
  %19 = load ptr, ptr %9, align 8, !tbaa !10
  %20 = load ptr, ptr %6, align 8, !tbaa !10
  %21 = icmp uge ptr %19, %20
  call void @llvm.assume(i1 %21)
  %22 = load i64, ptr %8, align 8, !tbaa !31
  %23 = icmp eq i64 %22, 0
  %24 = xor i1 %23, true
  %25 = xor i1 %24, true
  %26 = zext i1 %25 to i32
  %27 = sext i32 %26 to i64
  %28 = call i64 @llvm.expect.i64(i64 %27, i64 0)
  %29 = icmp ne i64 %28, 0
  br i1 %29, label %30, label %32

30:                                               ; preds = %4
  %31 = load ptr, ptr %6, align 8, !tbaa !10
  store ptr %31, ptr %5, align 8
  br label %227

32:                                               ; preds = %4
  %33 = load i64, ptr %8, align 8, !tbaa !31
  %34 = load ptr, ptr %9, align 8, !tbaa !10
  %35 = load ptr, ptr %6, align 8, !tbaa !10
  %36 = ptrtoint ptr %34 to i64
  %37 = ptrtoint ptr %35 to i64
  %38 = sub i64 %36, %37
  %39 = icmp ugt i64 %33, %38
  %40 = xor i1 %39, true
  %41 = xor i1 %40, true
  %42 = zext i1 %41 to i32
  %43 = sext i32 %42 to i64
  %44 = call i64 @llvm.expect.i64(i64 %43, i64 0)
  %45 = icmp ne i64 %44, 0
  br i1 %45, label %46, label %47

46:                                               ; preds = %32
  store ptr null, ptr %5, align 8
  br label %227

47:                                               ; preds = %32
  call void @llvm.lifetime.start.p0(i64 1, ptr %10) #22
  %48 = load ptr, ptr %7, align 8, !tbaa !10
  %49 = load i8, ptr %48, align 1, !tbaa !12
  %50 = zext i8 %49 to i64
  %51 = getelementptr inbounds nuw [256 x i8], ptr @zend_tolower_map, i64 0, i64 %50
  %52 = load i8, ptr %51, align 1, !tbaa !12
  store i8 %52, ptr %10, align 1, !tbaa !12
  call void @llvm.lifetime.start.p0(i64 1, ptr %11) #22
  %53 = load ptr, ptr %7, align 8, !tbaa !10
  %54 = load i8, ptr %53, align 1, !tbaa !12
  %55 = zext i8 %54 to i64
  %56 = getelementptr inbounds nuw [256 x i8], ptr @zend_toupper_map, i64 0, i64 %55
  %57 = load i8, ptr %56, align 1, !tbaa !12
  store i8 %57, ptr %11, align 1, !tbaa !12
  call void @llvm.lifetime.start.p0(i64 8, ptr %12) #22
  %58 = load ptr, ptr %6, align 8, !tbaa !10
  %59 = load i8, ptr %10, align 1, !tbaa !12
  %60 = sext i8 %59 to i32
  %61 = load ptr, ptr %9, align 8, !tbaa !10
  %62 = load ptr, ptr %6, align 8, !tbaa !10
  %63 = ptrtoint ptr %61 to i64
  %64 = ptrtoint ptr %62 to i64
  %65 = sub i64 %63, %64
  %66 = call ptr @memchr(ptr noundef %58, i32 noundef %60, i64 noundef %65) #23
  store ptr %66, ptr %12, align 8, !tbaa !10
  call void @llvm.lifetime.start.p0(i64 8, ptr %13) #22
  store ptr null, ptr %13, align 8, !tbaa !10
  %67 = load i8, ptr %10, align 1, !tbaa !12
  %68 = sext i8 %67 to i32
  %69 = load i8, ptr %11, align 1, !tbaa !12
  %70 = sext i8 %69 to i32
  %71 = icmp ne i32 %68, %70
  br i1 %71, label %72, label %97

72:                                               ; preds = %47
  call void @llvm.lifetime.start.p0(i64 8, ptr %14) #22
  %73 = load i64, ptr %8, align 8, !tbaa !31
  %74 = icmp eq i64 %73, 1
  br i1 %74, label %75, label %84

75:                                               ; preds = %72
  %76 = load ptr, ptr %12, align 8, !tbaa !10
  %77 = icmp ne ptr %76, null
  br i1 %77, label %78, label %84

78:                                               ; preds = %75
  %79 = load ptr, ptr %12, align 8, !tbaa !10
  %80 = load ptr, ptr %6, align 8, !tbaa !10
  %81 = ptrtoint ptr %79 to i64
  %82 = ptrtoint ptr %80 to i64
  %83 = sub i64 %81, %82
  br label %90

84:                                               ; preds = %75, %72
  %85 = load ptr, ptr %9, align 8, !tbaa !10
  %86 = load ptr, ptr %6, align 8, !tbaa !10
  %87 = ptrtoint ptr %85 to i64
  %88 = ptrtoint ptr %86 to i64
  %89 = sub i64 %87, %88
  br label %90

90:                                               ; preds = %84, %78
  %91 = phi i64 [ %83, %78 ], [ %89, %84 ]
  store i64 %91, ptr %14, align 8, !tbaa !31
  %92 = load ptr, ptr %6, align 8, !tbaa !10
  %93 = load i8, ptr %11, align 1, !tbaa !12
  %94 = sext i8 %93 to i32
  %95 = load i64, ptr %14, align 8, !tbaa !31
  %96 = call ptr @memchr(ptr noundef %92, i32 noundef %94, i64 noundef %95) #23
  store ptr %96, ptr %13, align 8, !tbaa !10
  call void @llvm.lifetime.end.p0(i64 8, ptr %14) #22
  br label %97

97:                                               ; preds = %90, %47
  call void @llvm.lifetime.start.p0(i64 8, ptr %15) #22
  %98 = load ptr, ptr %13, align 8, !tbaa !10
  %99 = icmp ne ptr %98, null
  br i1 %99, label %100, label %107

100:                                              ; preds = %97
  %101 = load ptr, ptr %12, align 8, !tbaa !10
  %102 = icmp ne ptr %101, null
  br i1 %102, label %103, label %109

103:                                              ; preds = %100
  %104 = load ptr, ptr %12, align 8, !tbaa !10
  %105 = load ptr, ptr %13, align 8, !tbaa !10
  %106 = icmp ult ptr %104, %105
  br i1 %106, label %107, label %109

107:                                              ; preds = %103, %97
  %108 = load ptr, ptr %12, align 8, !tbaa !10
  br label %111

109:                                              ; preds = %103, %100
  %110 = load ptr, ptr %13, align 8, !tbaa !10
  br label %111

111:                                              ; preds = %109, %107
  %112 = phi ptr [ %108, %107 ], [ %110, %109 ]
  store ptr %112, ptr %15, align 8, !tbaa !10
  %113 = load i64, ptr %8, align 8, !tbaa !31
  %114 = icmp eq i64 %113, 1
  br i1 %114, label %115, label %117

115:                                              ; preds = %111
  %116 = load ptr, ptr %15, align 8, !tbaa !10
  store ptr %116, ptr %5, align 8
  store i32 1, ptr %16, align 4
  br label %226

117:                                              ; preds = %111
  call void @llvm.lifetime.start.p0(i64 1, ptr %17) #22
  %118 = load ptr, ptr %7, align 8, !tbaa !10
  %119 = load i64, ptr %8, align 8, !tbaa !31
  %120 = sub i64 %119, 1
  %121 = getelementptr inbounds nuw i8, ptr %118, i64 %120
  %122 = load i8, ptr %121, align 1, !tbaa !12
  %123 = zext i8 %122 to i64
  %124 = getelementptr inbounds nuw [256 x i8], ptr @zend_tolower_map, i64 0, i64 %123
  %125 = load i8, ptr %124, align 1, !tbaa !12
  store i8 %125, ptr %17, align 1, !tbaa !12
  call void @llvm.lifetime.start.p0(i64 1, ptr %18) #22
  %126 = load ptr, ptr %7, align 8, !tbaa !10
  %127 = load i64, ptr %8, align 8, !tbaa !31
  %128 = sub i64 %127, 1
  %129 = getelementptr inbounds nuw i8, ptr %126, i64 %128
  %130 = load i8, ptr %129, align 1, !tbaa !12
  %131 = zext i8 %130 to i64
  %132 = getelementptr inbounds nuw [256 x i8], ptr @zend_toupper_map, i64 0, i64 %131
  %133 = load i8, ptr %132, align 1, !tbaa !12
  store i8 %133, ptr %18, align 1, !tbaa !12
  %134 = load i64, ptr %8, align 8, !tbaa !31
  %135 = load ptr, ptr %9, align 8, !tbaa !10
  %136 = sub i64 0, %134
  %137 = getelementptr inbounds i8, ptr %135, i64 %136
  store ptr %137, ptr %9, align 8, !tbaa !10
  br label %138

138:                                              ; preds = %222, %117
  %139 = load ptr, ptr %15, align 8, !tbaa !10
  %140 = icmp ne ptr %139, null
  br i1 %140, label %141, label %145

141:                                              ; preds = %138
  %142 = load ptr, ptr %15, align 8, !tbaa !10
  %143 = load ptr, ptr %9, align 8, !tbaa !10
  %144 = icmp ule ptr %142, %143
  br label %145

145:                                              ; preds = %141, %138
  %146 = phi i1 [ false, %138 ], [ %144, %141 ]
  br i1 %146, label %147, label %224

147:                                              ; preds = %145
  %148 = load i8, ptr %17, align 1, !tbaa !12
  %149 = sext i8 %148 to i32
  %150 = load ptr, ptr %15, align 8, !tbaa !10
  %151 = load i64, ptr %8, align 8, !tbaa !31
  %152 = sub i64 %151, 1
  %153 = getelementptr inbounds nuw i8, ptr %150, i64 %152
  %154 = load i8, ptr %153, align 1, !tbaa !12
  %155 = sext i8 %154 to i32
  %156 = icmp eq i32 %149, %155
  br i1 %156, label %167, label %157

157:                                              ; preds = %147
  %158 = load i8, ptr %18, align 1, !tbaa !12
  %159 = sext i8 %158 to i32
  %160 = load ptr, ptr %15, align 8, !tbaa !10
  %161 = load i64, ptr %8, align 8, !tbaa !31
  %162 = sub i64 %161, 1
  %163 = getelementptr inbounds nuw i8, ptr %160, i64 %162
  %164 = load i8, ptr %163, align 1, !tbaa !12
  %165 = sext i8 %164 to i32
  %166 = icmp eq i32 %159, %165
  br i1 %166, label %167, label %178

167:                                              ; preds = %157, %147
  %168 = load ptr, ptr %7, align 8, !tbaa !10
  %169 = getelementptr inbounds i8, ptr %168, i64 1
  %170 = load ptr, ptr %15, align 8, !tbaa !10
  %171 = getelementptr inbounds i8, ptr %170, i64 1
  %172 = load i64, ptr %8, align 8, !tbaa !31
  %173 = sub i64 %172, 2
  %174 = call zeroext i1 @zend_strnieq(ptr noundef %169, ptr noundef %171, i64 noundef %173)
  br i1 %174, label %175, label %177

175:                                              ; preds = %167
  %176 = load ptr, ptr %15, align 8, !tbaa !10
  store ptr %176, ptr %5, align 8
  store i32 1, ptr %16, align 4
  br label %225

177:                                              ; preds = %167
  br label %178

178:                                              ; preds = %177, %157
  %179 = load ptr, ptr %12, align 8, !tbaa !10
  %180 = load ptr, ptr %15, align 8, !tbaa !10
  %181 = icmp eq ptr %179, %180
  br i1 %181, label %182, label %193

182:                                              ; preds = %178
  %183 = load ptr, ptr %12, align 8, !tbaa !10
  %184 = getelementptr inbounds i8, ptr %183, i64 1
  %185 = load i8, ptr %10, align 1, !tbaa !12
  %186 = sext i8 %185 to i32
  %187 = load ptr, ptr %9, align 8, !tbaa !10
  %188 = load ptr, ptr %12, align 8, !tbaa !10
  %189 = ptrtoint ptr %187 to i64
  %190 = ptrtoint ptr %188 to i64
  %191 = sub i64 %189, %190
  %192 = call ptr @memchr(ptr noundef %184, i32 noundef %186, i64 noundef %191) #23
  store ptr %192, ptr %12, align 8, !tbaa !10
  br label %193

193:                                              ; preds = %182, %178
  %194 = load ptr, ptr %13, align 8, !tbaa !10
  %195 = load ptr, ptr %15, align 8, !tbaa !10
  %196 = icmp eq ptr %194, %195
  br i1 %196, label %197, label %208

197:                                              ; preds = %193
  %198 = load ptr, ptr %13, align 8, !tbaa !10
  %199 = getelementptr inbounds i8, ptr %198, i64 1
  %200 = load i8, ptr %11, align 1, !tbaa !12
  %201 = sext i8 %200 to i32
  %202 = load ptr, ptr %9, align 8, !tbaa !10
  %203 = load ptr, ptr %13, align 8, !tbaa !10
  %204 = ptrtoint ptr %202 to i64
  %205 = ptrtoint ptr %203 to i64
  %206 = sub i64 %204, %205
  %207 = call ptr @memchr(ptr noundef %199, i32 noundef %201, i64 noundef %206) #23
  store ptr %207, ptr %13, align 8, !tbaa !10
  br label %208

208:                                              ; preds = %197, %193
  %209 = load ptr, ptr %13, align 8, !tbaa !10
  %210 = icmp ne ptr %209, null
  br i1 %210, label %211, label %218

211:                                              ; preds = %208
  %212 = load ptr, ptr %12, align 8, !tbaa !10
  %213 = icmp ne ptr %212, null
  br i1 %213, label %214, label %220

214:                                              ; preds = %211
  %215 = load ptr, ptr %12, align 8, !tbaa !10
  %216 = load ptr, ptr %13, align 8, !tbaa !10
  %217 = icmp ult ptr %215, %216
  br i1 %217, label %218, label %220

218:                                              ; preds = %214, %208
  %219 = load ptr, ptr %12, align 8, !tbaa !10
  br label %222

220:                                              ; preds = %214, %211
  %221 = load ptr, ptr %13, align 8, !tbaa !10
  br label %222

222:                                              ; preds = %220, %218
  %223 = phi ptr [ %219, %218 ], [ %221, %220 ]
  store ptr %223, ptr %15, align 8, !tbaa !10
  br label %138

224:                                              ; preds = %145
  store ptr null, ptr %5, align 8
  store i32 1, ptr %16, align 4
  br label %225

225:                                              ; preds = %224, %175
  call void @llvm.lifetime.end.p0(i64 1, ptr %18) #22
  call void @llvm.lifetime.end.p0(i64 1, ptr %17) #22
  br label %226

226:                                              ; preds = %225, %115
  call void @llvm.lifetime.end.p0(i64 8, ptr %15) #22
  call void @llvm.lifetime.end.p0(i64 8, ptr %13) #22
  call void @llvm.lifetime.end.p0(i64 8, ptr %12) #22
  call void @llvm.lifetime.end.p0(i64 1, ptr %11) #22
  call void @llvm.lifetime.end.p0(i64 1, ptr %10) #22
  br label %227

227:                                              ; preds = %226, %46, %30
  %228 = load ptr, ptr %5, align 8
  ret ptr %228
}

; Function Attrs: nounwind uwtable
define dso_local ptr @php_stristr(ptr noundef %0, ptr noundef %1, i64 noundef %2, i64 noundef %3) #0 {
  %5 = alloca ptr, align 8
  %6 = alloca ptr, align 8
  %7 = alloca i64, align 8
  %8 = alloca i64, align 8
  store ptr %0, ptr %5, align 8, !tbaa !10
  store ptr %1, ptr %6, align 8, !tbaa !10
  store i64 %2, ptr %7, align 8, !tbaa !31
  store i64 %3, ptr %8, align 8, !tbaa !31
  %9 = load ptr, ptr %5, align 8, !tbaa !10
  %10 = load ptr, ptr %6, align 8, !tbaa !10
  %11 = load i64, ptr %8, align 8, !tbaa !31
  %12 = load ptr, ptr %5, align 8, !tbaa !10
  %13 = load i64, ptr %7, align 8, !tbaa !31
  %14 = getelementptr inbounds nuw i8, ptr %12, i64 %13
  %15 = call ptr @zend_memnistr(ptr noundef %9, ptr noundef %10, i64 noundef %11, ptr noundef %14)
  ret ptr %15
}