; Function Attrs: nofree nounwind memory(read, inaccessiblemem: none) uwtable
define dso_local ptr @php_stristr(ptr noundef %0, ptr noundef readonly captures(address) %1, i64 noundef %2, i64 noundef %3) local_unnamed_addr #10 {
  %5 = getelementptr inbounds nuw i8, ptr %0, i64 %2
  %6 = icmp eq i64 %3, 0
  br i1 %6, label %zend_memnistr.exit, label %7, !prof !23

7:                                                ; preds = %4
  %8 = ptrtoint ptr %0 to i64
  %9 = icmp ugt i64 %3, %2
  br i1 %9, label %zend_memnistr.exit, label %10, !prof !23

10:                                               ; preds = %7
  %11 = load i8, ptr %1, align 1, !tbaa !10
  %12 = zext i8 %11 to i64
  %13 = getelementptr inbounds nuw [256 x i8], ptr @zend_tolower_map, i64 0, i64 %12
  %14 = load i8, ptr %13, align 1, !tbaa !10
  %15 = getelementptr inbounds nuw [256 x i8], ptr @zend_toupper_map, i64 0, i64 %12
  %16 = load i8, ptr %15, align 1, !tbaa !10
  %17 = sext i8 %14 to i32
  %18 = tail call ptr @memchr(ptr noundef %0, i32 noundef %17, i64 noundef %2) #30
  %19 = sext i8 %16 to i32
  %.not.i = icmp eq i8 %14, %16
  br i1 %.not.i, label %27, label %20

20:                                               ; preds = %10
  %21 = icmp eq i64 %3, 1
  %22 = icmp ne ptr %18, null
  %or.cond.i = select i1 %21, i1 %22, i1 false
  %23 = ptrtoint ptr %18 to i64
  %24 = sub i64 %23, %8
  %25 = select i1 %or.cond.i, i64 %24, i64 %2
  %26 = tail call ptr @memchr(ptr noundef %0, i32 noundef %19, i64 noundef %25) #30
  br label %27

27:                                               ; preds = %20, %10
  %.073.i = phi ptr [ %26, %20 ], [ null, %10 ]
  %.not83.i = icmp eq ptr %.073.i, null
  %.not84.i = icmp ne ptr %18, null
  %28 = icmp ult ptr %18, %.073.i
  %or.cond87.i = and i1 %.not84.i, %28
  %29 = select i1 %.not83.i, i1 true, i1 %or.cond87.i
  %30 = select i1 %29, ptr %18, ptr %.073.i
  %31 = icmp eq i64 %3, 1
  br i1 %31, label %zend_memnistr.exit, label %32

32:                                               ; preds = %27
  %33 = add i64 %3, -1
  %34 = getelementptr inbounds nuw i8, ptr %1, i64 %33
  %35 = load i8, ptr %34, align 1, !tbaa !10
  %36 = zext i8 %35 to i64
  %37 = getelementptr inbounds nuw [256 x i8], ptr @zend_tolower_map, i64 0, i64 %36
  %38 = load i8, ptr %37, align 1, !tbaa !10
  %39 = getelementptr inbounds nuw [256 x i8], ptr @zend_toupper_map, i64 0, i64 %36
  %40 = load i8, ptr %39, align 1, !tbaa !10
  %41 = sub i64 0, %3
  %42 = getelementptr inbounds i8, ptr %5, i64 %41
  %43 = icmp ne ptr %30, null
  %44 = icmp ule ptr %30, %42
  %45 = select i1 %43, i1 %44, i1 false
  br i1 %45, label %.lr.ph, label %zend_memnistr.exit

.lr.ph:                                           ; preds = %32
  %46 = getelementptr inbounds nuw i8, ptr %1, i64 1
  %47 = getelementptr i8, ptr %46, i64 %3
  %48 = getelementptr i8, ptr %47, i64 -2
  %49 = ptrtoint ptr %42 to i64
  br label %50

50:                                               ; preds = %.lr.ph, %78
  %.070.i9 = phi ptr [ %30, %.lr.ph ], [ %81, %78 ]
  %.071.i8 = phi ptr [ %18, %.lr.ph ], [ %.172.i, %78 ]
  %.174.i7 = phi ptr [ %.073.i, %.lr.ph ], [ %.275.i, %78 ]
  %51 = getelementptr inbounds nuw i8, ptr %.070.i9, i64 %33
  %52 = load i8, ptr %51, align 1, !tbaa !10
  %53 = icmp eq i8 %38, %52
  %54 = icmp eq i8 %40, %52
  %or.cond88.i = select i1 %53, i1 true, i1 %54
  br i1 %or.cond88.i, label %.preheader, label %zend_strnieq.exit

.preheader:                                       ; preds = %50, %55
  %.070.i.pn = phi ptr [ %.07.i, %55 ], [ %.070.i9, %50 ]
  %.06.i = phi ptr [ %56, %55 ], [ %46, %50 ]
  %.not = icmp ult ptr %.06.i, %48
  br i1 %.not, label %55, label %zend_memnistr.exit

55:                                               ; preds = %.preheader
  %.07.i = getelementptr inbounds nuw i8, ptr %.070.i.pn, i64 1
  %56 = getelementptr inbounds nuw i8, ptr %.06.i, i64 1
  %57 = load i8, ptr %.06.i, align 1, !tbaa !10
  %58 = zext i8 %57 to i64
  %59 = getelementptr inbounds nuw [256 x i8], ptr @zend_tolower_map, i64 0, i64 %58
  %60 = load i8, ptr %59, align 1, !tbaa !10
  %61 = load i8, ptr %.07.i, align 1, !tbaa !10
  %62 = zext i8 %61 to i64
  %63 = getelementptr inbounds nuw [256 x i8], ptr @zend_tolower_map, i64 0, i64 %62
  %64 = load i8, ptr %63, align 1, !tbaa !10
  %.not.i4 = icmp eq i8 %60, %64
  br i1 %.not.i4, label %.preheader, label %zend_strnieq.exit

zend_strnieq.exit:                                ; preds = %55, %50
  %65 = icmp eq ptr %.071.i8, %.070.i9
  br i1 %65, label %66, label %71

66:                                               ; preds = %zend_strnieq.exit
  %67 = getelementptr inbounds nuw i8, ptr %.071.i8, i64 1
  %68 = ptrtoint ptr %.070.i9 to i64
  %69 = sub i64 %49, %68
  %70 = tail call ptr @memchr(ptr noundef nonnull %67, i32 noundef %17, i64 noundef %69) #30
  br label %71

71:                                               ; preds = %66, %zend_strnieq.exit
  %.172.i = phi ptr [ %70, %66 ], [ %.071.i8, %zend_strnieq.exit ]
  %72 = icmp eq ptr %.174.i7, %.070.i9
  br i1 %72, label %73, label %78

73:                                               ; preds = %71
  %74 = getelementptr inbounds nuw i8, ptr %.174.i7, i64 1
  %75 = ptrtoint ptr %.070.i9 to i64
  %76 = sub i64 %49, %75
  %77 = tail call ptr @memchr(ptr noundef nonnull %74, i32 noundef %19, i64 noundef %76) #30
  br label %78

78:                                               ; preds = %73, %71
  %.275.i = phi ptr [ %77, %73 ], [ %.174.i7, %71 ]
  %.not85.i = icmp eq ptr %.275.i, null
  %.not86.i = icmp ne ptr %.172.i, null
  %79 = icmp ult ptr %.172.i, %.275.i
  %or.cond89.i = and i1 %.not86.i, %79
  %80 = select i1 %.not85.i, i1 true, i1 %or.cond89.i
  %81 = select i1 %80, ptr %.172.i, ptr %.275.i
  %82 = icmp ne ptr %81, null
  %83 = icmp ule ptr %81, %42
  %84 = select i1 %82, i1 %83, i1 false
  br i1 %84, label %50, label %zend_memnistr.exit

zend_memnistr.exit:                               ; preds = %78, %.preheader, %32, %4, %7, %27
  %.0.i = phi ptr [ %0, %4 ], [ null, %7 ], [ %30, %27 ], [ null, %32 ], [ %.070.i9, %.preheader ], [ null, %78 ]
  ret ptr %.0.i
}